target datalayout = "e-m:e-p270:32:32-p271:32:32-p272:64:64-i64:64-i128:128-f80:128-n8:16:32:64-S128"
target triple = "x86_64-pc-linux-gnu"

%struct.grpc_iomgr_object = type { ptr, ptr, ptr }

@_ZL4g_mu = internal global i64 0, align 8
@_ZL13g_root_object = internal global %struct.grpc_iomgr_object zeroinitializer, align 8

; Function Attrs: mustprogress uwtable
define void @_Z26grpc_iomgr_register_objectP17grpc_iomgr_objectPKc(ptr noundef %0, ptr noundef %1) #4 {
  %3 = alloca ptr, align 8
  %4 = alloca ptr, align 8
  store ptr %0, ptr %3, align 8, !tbaa !37
  store ptr %1, ptr %4, align 8, !tbaa !51
  %5 = load ptr, ptr %4, align 8, !tbaa !51
  %6 = call ptr @gpr_strdup(ptr noundef %5)
  %7 = load ptr, ptr %3, align 8, !tbaa !37
  %8 = getelementptr inbounds nuw %struct.grpc_iomgr_object, ptr %7, i32 0, i32 0
  store ptr %6, ptr %8, align 8, !tbaa !13
  call void @gpr_mu_lock(ptr noundef @_ZL4g_mu)
  %9 = load ptr, ptr %3, align 8, !tbaa !37
  %10 = getelementptr inbounds nuw %struct.grpc_iomgr_object, ptr %9, i32 0, i32 1
  store ptr @_ZL13g_root_object, ptr %10, align 8, !tbaa !12
  %11 = load ptr, ptr getelementptr inbounds nuw (%struct.grpc_iomgr_object, ptr @_ZL13g_root_object, i32 0, i32 2), align 8, !tbaa !7
  %12 = load ptr, ptr %3, align 8, !tbaa !37
  %13 = getelementptr inbounds nuw %struct.grpc_iomgr_object, ptr %12, i32 0, i32 2
  store ptr %11, ptr %13, align 8, !tbaa !7
  %14 = load ptr, ptr %3, align 8, !tbaa !37
  %15 = load ptr, ptr %3, align 8, !tbaa !37
  %16 = getelementptr inbounds nuw %struct.grpc_iomgr_object, ptr %15, i32 0, i32 2
  %17 = load ptr, ptr %16, align 8, !tbaa !7
  %18 = getelementptr inbounds nuw %struct.grpc_iomgr_object, ptr %17, i32 0, i32 1
  store ptr %14, ptr %18, align 8, !tbaa !12
  %19 = load ptr, ptr %3, align 8, !tbaa !37
  %20 = getelementptr inbounds nuw %struct.grpc_iomgr_object, ptr %19, i32 0, i32 1
  %21 = load ptr, ptr %20, align 8, !tbaa !12
  %22 = getelementptr inbounds nuw %struct.grpc_iomgr_object, ptr %21, i32 0, i32 2
  store ptr %14, ptr %22, align 8, !tbaa !7
  call void @gpr_mu_unlock(ptr noundef @_ZL4g_mu)
  ret void
}