; Function Attrs: mustprogress uwtable
define void @_Z26grpc_iomgr_register_objectP17grpc_iomgr_objectPKc(ptr noundef initializes((0, 24)) %0, ptr noundef %1) local_unnamed_addr #6 {
  %3 = tail call ptr @gpr_strdup(ptr noundef %1)
  store ptr %3, ptr %0, align 8, !tbaa !31
  tail call void @gpr_mu_lock(ptr noundef nonnull @_ZL4g_mu)
  %4 = getelementptr inbounds nuw i8, ptr %0, i64 8
  store ptr @_ZL13g_root_object, ptr %4, align 8, !tbaa !30
  %5 = load ptr, ptr getelementptr inbounds nuw (i8, ptr @_ZL13g_root_object, i64 16), align 8, !tbaa !26
  %6 = getelementptr inbounds nuw i8, ptr %0, i64 16
  store ptr %5, ptr %6, align 8, !tbaa !26
  %7 = getelementptr inbounds nuw i8, ptr %5, i64 8
  store ptr %0, ptr %7, align 8, !tbaa !30
  %8 = load ptr, ptr %4, align 8, !tbaa !30
  %9 = getelementptr inbounds nuw i8, ptr %8, i64 16
  store ptr %0, ptr %9, align 8, !tbaa !26
  tail call void @gpr_mu_unlock(ptr noundef nonnull @_ZL4g_mu)
  ret void
}